; Function Attrs: nofree norecurse nosync nounwind memory(argmem: readwrite) uwtable
define internal noundef ptr @stbi__resample_row_generic(ptr noundef returned writeonly captures(ret: address, provenance) %0, ptr noundef readonly captures(none) %1, ptr readnone captures(none) %2, i32 noundef %3, i32 noundef %4) #8 {
  %6 = icmp sgt i32 %3, 0
  %7 = icmp sgt i32 %4, 0
  %or.cond = and i1 %6, %7
  br i1 %or.cond, label %.preheader.us.preheader, label %._crit_edge16

.preheader.us.preheader:                          ; preds = %5
  %8 = zext nneg i32 %4 to i64
  %wide.trip.count22 = zext nneg i32 %3 to i64
  br label %.preheader.us

.preheader.us:                                    ; preds = %.preheader.us.preheader, %._crit_edge.us
  %indvars.iv19 = phi i64 [ 0, %.preheader.us.preheader ], [ %indvars.iv.next20, %._crit_edge.us ]
  %9 = getelementptr inbounds nuw i8, ptr %1, i64 %indvars.iv19
  %10 = mul nuw nsw i64 %indvars.iv19, %8
  %.pre = load i8, ptr %9, align 1
  %invariant.gep = getelementptr inbounds nuw i8, ptr %0, i64 %10
  br label %11

11:                                               ; preds = %.preheader.us, %11
  %indvars.iv = phi i64 [ 0, %.preheader.us ], [ %indvars.iv.next, %11 ]
  %gep = getelementptr inbounds nuw i8, ptr %invariant.gep, i64 %indvars.iv
  store i8 %.pre, ptr %gep, align 1
  %indvars.iv.next = add nuw nsw i64 %indvars.iv, 1
  %exitcond.not = icmp eq i64 %indvars.iv.next, %8
  br i1 %exitcond.not, label %._crit_edge.us, label %11, !llvm.loop !49

._crit_edge.us:                                   ; preds = %11
  %indvars.iv.next20 = add nuw nsw i64 %indvars.iv19, 1
  %exitcond23.not = icmp eq i64 %indvars.iv.next20, %wide.trip.count22
  br i1 %exitcond23.not, label %._crit_edge16, label %.preheader.us, !llvm.loop !50

._crit_edge16:                                    ; preds = %._crit_edge.us, %5
  ret ptr %0
}